target datalayout = "e-m:e-p270:32:32-p271:32:32-p272:64:64-i64:64-i128:128-f80:128-n8:16:32:64-S128"
target triple = "x86_64-pc-linux-gnu"

%struct.evp_test_st = type { %struct.stanza_st, ptr, i32, ptr, ptr, ptr, ptr, ptr, ptr, i32 }
%struct.stanza_st = type { ptr, ptr, i32, i32, i32, i32, i32, i32, [150 x %struct.pair_st], ptr, [32768 x i8] }
%struct.pair_st = type { ptr, ptr }
%struct.DIGESTSIGN_DATA = type { i32, i32, ptr, ptr, ptr, ptr, ptr, i64, ptr, i64, i32, ptr, ptr, ptr }

@.str.29 = private unnamed_addr constant [27 x i8] c"../openssl/test/evp_test.c\00", align 1

; Function Attrs: inlinehint nounwind uwtable
define internal ptr @ossl_check_OPENSSL_STRING_freefunc_type(ptr noundef %0) #5 {
  %2 = alloca ptr, align 8
  store ptr %0, ptr %2, align 8, !tbaa !97
  %3 = load ptr, ptr %2, align 8, !tbaa !97
  ret ptr %3
}

; Function Attrs: inlinehint nounwind uwtable
define internal ptr @ossl_check_OPENSSL_STRING_sk_type(ptr noundef %0) #5 {
  %2 = alloca ptr, align 8
  store ptr %0, ptr %2, align 8, !tbaa !131
  %3 = load ptr, ptr %2, align 8, !tbaa !131
  ret ptr %3
}

; Function Attrs: inlinehint nounwind uwtable
define internal void @sk_EVP_TEST_BUFFER_pop_free(ptr noundef %0, ptr noundef %1) #5 {
  %3 = alloca ptr, align 8
  %4 = alloca ptr, align 8
  store ptr %0, ptr %3, align 8, !tbaa !204
  store ptr %1, ptr %4, align 8, !tbaa !97
  %5 = load ptr, ptr %3, align 8, !tbaa !204
  %6 = load ptr, ptr %4, align 8, !tbaa !97
  call void @OPENSSL_sk_pop_free(ptr noundef %5, ptr noundef %6)
  ret void
}

; Function Attrs: nounwind uwtable
define internal void @ctrlfree(ptr noundef %0) #0 {
  %2 = alloca ptr, align 8
  store ptr %0, ptr %2, align 8, !tbaa !131
  %3 = load ptr, ptr %2, align 8, !tbaa !131
  %4 = call ptr @ossl_check_OPENSSL_STRING_sk_type(ptr noundef %3)
  %5 = call ptr @ossl_check_OPENSSL_STRING_freefunc_type(ptr noundef @openssl_free)
  call void @OPENSSL_sk_pop_free(ptr noundef %4, ptr noundef %5)
  ret void
}

; Function Attrs: nounwind uwtable
define internal void @digestsigver_test_cleanup(ptr noundef %0) #0 {
  %2 = alloca ptr, align 8
  %3 = alloca ptr, align 8
  store ptr %0, ptr %2, align 8, !tbaa !15
  call void @llvm.lifetime.start.p0(i64 8, ptr %3) #10
  %4 = load ptr, ptr %2, align 8, !tbaa !15
  %5 = getelementptr inbounds nuw %struct.evp_test_st, ptr %4, i32 0, i32 8
  %6 = load ptr, ptr %5, align 8, !tbaa !66
  store ptr %6, ptr %3, align 8, !tbaa !97
  %7 = load ptr, ptr %3, align 8, !tbaa !97
  %8 = getelementptr inbounds nuw %struct.DIGESTSIGN_DATA, ptr %7, i32 0, i32 12
  %9 = load ptr, ptr %8, align 8, !tbaa !212
  call void @ctrlfree(ptr noundef %9)
  %10 = load ptr, ptr %3, align 8, !tbaa !97
  %11 = getelementptr inbounds nuw %struct.DIGESTSIGN_DATA, ptr %10, i32 0, i32 13
  %12 = load ptr, ptr %11, align 8, !tbaa !215
  call void @ctrlfree(ptr noundef %12)
  %13 = load ptr, ptr %3, align 8, !tbaa !97
  %14 = getelementptr inbounds nuw %struct.DIGESTSIGN_DATA, ptr %13, i32 0, i32 3
  %15 = load ptr, ptr %14, align 8, !tbaa !216
  call void @EVP_MD_CTX_free(ptr noundef %15)
  %16 = load ptr, ptr %3, align 8, !tbaa !97
  %17 = getelementptr inbounds nuw %struct.DIGESTSIGN_DATA, ptr %16, i32 0, i32 5
  %18 = load ptr, ptr %17, align 8, !tbaa !217
  call void @sk_EVP_TEST_BUFFER_pop_free(ptr noundef %18, ptr noundef @evp_test_buffer_free)
  %19 = load ptr, ptr %3, align 8, !tbaa !97
  %20 = getelementptr inbounds nuw %struct.DIGESTSIGN_DATA, ptr %19, i32 0, i32 6
  %21 = load ptr, ptr %20, align 8, !tbaa !218
  call void @CRYPTO_free(ptr noundef %21, ptr noundef @.str.29, i32 noundef 4493)
  %22 = load ptr, ptr %3, align 8, !tbaa !97
  %23 = getelementptr inbounds nuw %struct.DIGESTSIGN_DATA, ptr %22, i32 0, i32 8
  %24 = load ptr, ptr %23, align 8, !tbaa !219
  call void @CRYPTO_free(ptr noundef %24, ptr noundef @.str.29, i32 noundef 4494)
  %25 = load ptr, ptr %3, align 8, !tbaa !97
  call void @CRYPTO_free(ptr noundef %25, ptr noundef @.str.29, i32 noundef 4495)
  %26 = load ptr, ptr %2, align 8, !tbaa !15
  %27 = getelementptr inbounds nuw %struct.evp_test_st, ptr %26, i32 0, i32 8
  store ptr null, ptr %27, align 8, !tbaa !66
  call void @llvm.lifetime.end.p0(i64 8, ptr %3) #10
  ret void
}