; Function Attrs: nounwind uwtable
define internal void @digestsigver_test_cleanup(ptr noundef captures(none) %0) #1 {
  %2 = getelementptr inbounds nuw i8, ptr %0, i64 35272
  %3 = load ptr, ptr %2, align 8, !tbaa !20
  %4 = getelementptr inbounds nuw i8, ptr %3, i64 88
  %5 = load ptr, ptr %4, align 8, !tbaa !171
  tail call void @OPENSSL_sk_pop_free(ptr noundef %5, ptr noundef nonnull @openssl_free) #10
  %6 = getelementptr inbounds nuw i8, ptr %3, i64 96
  %7 = load ptr, ptr %6, align 8, !tbaa !175
  tail call void @OPENSSL_sk_pop_free(ptr noundef %7, ptr noundef nonnull @openssl_free) #10
  %8 = getelementptr inbounds nuw i8, ptr %3, i64 16
  %9 = load ptr, ptr %8, align 8, !tbaa !176
  tail call void @EVP_MD_CTX_free(ptr noundef %9) #10
  %10 = getelementptr inbounds nuw i8, ptr %3, i64 32
  %11 = load ptr, ptr %10, align 8, !tbaa !177
  tail call void @OPENSSL_sk_pop_free(ptr noundef %11, ptr noundef nonnull @evp_test_buffer_free) #10
  %12 = getelementptr inbounds nuw i8, ptr %3, i64 40
  %13 = load ptr, ptr %12, align 8, !tbaa !178
  tail call void @CRYPTO_free(ptr noundef %13, ptr noundef nonnull @.str.29, i32 noundef 4493) #10
  %14 = getelementptr inbounds nuw i8, ptr %3, i64 56
  %15 = load ptr, ptr %14, align 8, !tbaa !179
  tail call void @CRYPTO_free(ptr noundef %15, ptr noundef nonnull @.str.29, i32 noundef 4494) #10
  tail call void @CRYPTO_free(ptr noundef %3, ptr noundef nonnull @.str.29, i32 noundef 4495) #10
  store ptr null, ptr %2, align 8, !tbaa !20
  ret void
}